; Function Attrs: nofree nounwind uwtable
define internal void @libdef_set(ptr noundef readonly captures(none) %0, ptr noundef %1, i32 %2) #7 {
  %4 = getelementptr inbounds nuw i8, ptr %0, i64 8
  %5 = load i32, ptr %4, align 8, !tbaa !4
  %6 = icmp eq i32 %5, 7
  br i1 %6, label %7, label %35

7:                                                ; preds = %3
  %8 = load i8, ptr %1, align 1, !tbaa !21
  %9 = icmp eq i8 %8, 33
  br i1 %9, label %10, label %15

10:                                               ; preds = %7
  %11 = getelementptr inbounds nuw i8, ptr %1, i64 1
  %12 = load i8, ptr %11, align 1, !tbaa !21
  %13 = icmp eq i8 %12, 0
  br i1 %13, label %14, label %15

14:                                               ; preds = %10
  store i8 0, ptr %1, align 1, !tbaa !21
  br label %15

15:                                               ; preds = %14, %10, %7
  %16 = tail call i64 @strlen(ptr noundef nonnull dereferenceable(1) %1) #18
  %17 = icmp ugt i64 %16, 56
  br i1 %17, label %18, label %21

18:                                               ; preds = %15
  %19 = load ptr, ptr @stderr, align 8, !tbaa !22
  %20 = tail call i32 (ptr, ptr, ...) @fprintf(ptr noundef %19, ptr noundef nonnull @.str.50, ptr noundef nonnull %1) #16
  tail call void @exit(i32 noundef 1) #17
  unreachable

21:                                               ; preds = %15
  %22 = load ptr, ptr @optr, align 8, !tbaa !20
  %23 = getelementptr inbounds nuw i8, ptr %22, i64 1
  %24 = getelementptr inbounds nuw i8, ptr %23, i64 %16
  %25 = getelementptr inbounds nuw i8, ptr %24, i64 2
  %26 = icmp ugt ptr %25, getelementptr inbounds nuw (i8, ptr @obuf, i64 8192)
  br i1 %26, label %27, label %libdef_name.exit

27:                                               ; preds = %21
  %28 = load ptr, ptr @stderr, align 8, !tbaa !22
  %29 = tail call i64 @fwrite(ptr nonnull @.str.40, i64 30, i64 1, ptr %28) #19
  tail call void @exit(i32 noundef 1) #17
  unreachable

libdef_name.exit:                                 ; preds = %21
  %30 = trunc nuw i64 %16 to i8
  %31 = or disjoint i8 %30, -64
  store i8 %31, ptr %22, align 1, !tbaa !21
  tail call void @llvm.memcpy.p0.p0.i64(ptr nonnull align 1 %23, ptr nonnull align 1 %1, i64 %16, i1 false)
  %32 = getelementptr inbounds nuw i8, ptr %24, i64 1
  store ptr %32, ptr @optr, align 8, !tbaa !20
  store i8 -6, ptr %24, align 1, !tbaa !21
  %33 = load i8, ptr getelementptr inbounds nuw (i8, ptr @obuf, i64 2), align 2, !tbaa !21
  %34 = add i8 %33, 1
  store i8 %34, ptr getelementptr inbounds nuw (i8, ptr @obuf, i64 2), align 2, !tbaa !21
  br label %35

35:                                               ; preds = %libdef_name.exit, %3
  ret void
}